
key_led_elf:     file format elf32-littlearm

Disassembly of section .text:

00000000 <_start>:
   0:	e59f0010 	ldr	r0, [pc, #16]	; 18 <halt_loop+0x4>
   4:	e3a01000 	mov	r1, #0	; 0x0
   8:	e5801000 	str	r1, [r0]
   c:	e3a0da01 	mov	sp, #4096	; 0x1000
  10:	eb000001 	bl	1c <main>

00000014 <halt_loop>:
  14:	eafffffe 	.word	0xeafffffe
  18:	56000010 	.word	0x56000010

0000001c <main>:
  1c:	e1a0c00d 	mov	ip, sp
  20:	e92dd800 	push	{fp, ip, lr, pc}
  24:	e24cb004 	sub	fp, ip, #4	; 0x4
  28:	e24dd008 	sub	sp, sp, #8	; 0x8
  2c:	e3a03000 	mov	r3, #0	; 0x0
  30:	e50b3010 	str	r3, [fp, #-16]
  34:	e3a03456 	mov	r3, #1442840576	; 0x56000000
  38:	e2833054 	add	r3, r3, #84	; 0x54
  3c:	e3e02000 	mvn	r2, #0	; 0x0
  40:	e5832000 	str	r2, [r3]
  44:	e3a03456 	mov	r3, #1442840576	; 0x56000000
  48:	e2833050 	add	r3, r3, #80	; 0x50
  4c:	e3a02c15 	mov	r2, #5376	; 0x1500
  50:	e5832000 	str	r2, [r3]
  54:	e3a02456 	mov	r2, #1442840576	; 0x56000000
  58:	e2822060 	add	r2, r2, #96	; 0x60
  5c:	e3a03cff 	mov	r3, #65280	; 0xff00
  60:	e283303f 	add	r3, r3, #63	; 0x3f
  64:	e1833803 	orr	r3, r3, r3, lsl #16
  68:	e5823000 	str	r3, [r2]
  6c:	e3a03456 	mov	r3, #1442840576	; 0x56000000
  70:	e2833054 	add	r3, r3, #84	; 0x54
  74:	e5933000 	ldr	r3, [r3]
  78:	e50b3014 	str	r3, [fp, #-20]
  7c:	e3a03456 	mov	r3, #1442840576	; 0x56000000
  80:	e2833064 	add	r3, r3, #100	; 0x64
  84:	e5933000 	ldr	r3, [r3]
  88:	e50b3010 	str	r3, [fp, #-16]
  8c:	e51b3014 	ldr	r3, [fp, #-20]
  90:	e2033001 	and	r3, r3, #1	; 0x1
  94:	e20330ff 	and	r3, r3, #255	; 0xff
  98:	e3530000 	cmp	r3, #0	; 0x0
  9c:	0a000007 	beq	c0 <main+0xa4>
  a0:	e3a02456 	mov	r2, #1442840576	; 0x56000000
  a4:	e2822054 	add	r2, r2, #84	; 0x54
  a8:	e3a03456 	mov	r3, #1442840576	; 0x56000000
  ac:	e2833054 	add	r3, r3, #84	; 0x54
  b0:	e5933000 	ldr	r3, [r3]
  b4:	e3833010 	orr	r3, r3, #16	; 0x10
  b8:	e5823000 	str	r3, [r2]
  bc:	ea000006 	b	dc <main+0xc0>
  c0:	e3a02456 	mov	r2, #1442840576	; 0x56000000
  c4:	e2822054 	add	r2, r2, #84	; 0x54
  c8:	e3a03456 	mov	r3, #1442840576	; 0x56000000
  cc:	e2833054 	add	r3, r3, #84	; 0x54
  d0:	e5933000 	ldr	r3, [r3]
  d4:	e3c33010 	bic	r3, r3, #16	; 0x10
  d8:	e5823000 	str	r3, [r2]
  dc:	e51b3014 	ldr	r3, [fp, #-20]
  e0:	e2033004 	and	r3, r3, #4	; 0x4
  e4:	e3530000 	cmp	r3, #0	; 0x0
  e8:	0a000007 	beq	10c <main+0xf0>
  ec:	e3a02456 	mov	r2, #1442840576	; 0x56000000
  f0:	e2822054 	add	r2, r2, #84	; 0x54
  f4:	e3a03456 	mov	r3, #1442840576	; 0x56000000
  f8:	e2833054 	add	r3, r3, #84	; 0x54
  fc:	e5933000 	ldr	r3, [r3]
 100:	e3833020 	orr	r3, r3, #32	; 0x20
 104:	e5823000 	str	r3, [r2]
 108:	ea000006 	b	128 <main+0x10c>
 10c:	e3a02456 	mov	r2, #1442840576	; 0x56000000
 110:	e2822054 	add	r2, r2, #84	; 0x54
 114:	e3a03456 	mov	r3, #1442840576	; 0x56000000
 118:	e2833054 	add	r3, r3, #84	; 0x54
 11c:	e5933000 	ldr	r3, [r3]
 120:	e3c33020 	bic	r3, r3, #32	; 0x20
 124:	e5823000 	str	r3, [r2]
 128:	e51b3010 	ldr	r3, [fp, #-16]
 12c:	e2033008 	and	r3, r3, #8	; 0x8
 130:	e3530000 	cmp	r3, #0	; 0x0
 134:	0a000007 	beq	158 <main+0x13c>
 138:	e3a02456 	mov	r2, #1442840576	; 0x56000000
 13c:	e2822054 	add	r2, r2, #84	; 0x54
 140:	e3a03456 	mov	r3, #1442840576	; 0x56000000
 144:	e2833054 	add	r3, r3, #84	; 0x54
 148:	e5933000 	ldr	r3, [r3]
 14c:	e3833040 	orr	r3, r3, #64	; 0x40
 150:	e5823000 	str	r3, [r2]
 154:	ea000006 	b	174 <main+0x158>
 158:	e3a02456 	mov	r2, #1442840576	; 0x56000000
 15c:	e2822054 	add	r2, r2, #84	; 0x54
 160:	e3a03456 	mov	r3, #1442840576	; 0x56000000
 164:	e2833054 	add	r3, r3, #84	; 0x54
 168:	e5933000 	ldr	r3, [r3]
 16c:	e3c33040 	bic	r3, r3, #64	; 0x40
 170:	e5823000 	str	r3, [r2]
 174:	e51b3010 	ldr	r3, [fp, #-16]
 178:	e2033b02 	and	r3, r3, #2048	; 0x800
 17c:	e3530000 	cmp	r3, #0	; 0x0
 180:	0a000007 	beq	1a4 <main+0x188>
 184:	e3a02456 	mov	r2, #1442840576	; 0x56000000
 188:	e2822054 	add	r2, r2, #84	; 0x54
 18c:	e3a03456 	mov	r3, #1442840576	; 0x56000000
 190:	e2833054 	add	r3, r3, #84	; 0x54
 194:	e5933000 	ldr	r3, [r3]
 198:	e3833070 	orr	r3, r3, #112	; 0x70
 19c:	e5823000 	str	r3, [r2]
 1a0:	eaffffb1 	b	6c <main+0x50>
 1a4:	e3a02456 	mov	r2, #1442840576	; 0x56000000
 1a8:	e2822054 	add	r2, r2, #84	; 0x54
 1ac:	e3a03456 	mov	r3, #1442840576	; 0x56000000
 1b0:	e2833054 	add	r3, r3, #84	; 0x54
 1b4:	e5933000 	ldr	r3, [r3]
 1b8:	e3c33070 	bic	r3, r3, #112	; 0x70
 1bc:	e5823000 	str	r3, [r2]
 1c0:	eaffffa9 	b	6c <main+0x50>