
leds_elf:     file format elf32-littlearm

Disassembly of section .text:

00000000 <_start>:
   0:	e3a00453 	mov	r0, #1392508928	; 0x53000000
   4:	e3a01000 	mov	r1, #0	; 0x0
   8:	e5801000 	str	r1, [r0]
   c:	e3a0da01 	mov	sp, #4096	; 0x1000
  10:	eb00000b 	bl	44 <main>

00000014 <halt_loop>:
  14:	eafffffe 	.word	0xeafffffe

00000018 <wait>:
  18:	e24dd008 	sub	sp, sp, #8	; 0x8
  1c:	e58d0004 	str	r0, [sp, #4]
  20:	ea000002 	b	30 <wait+0x18>
  24:	e59d3004 	ldr	r3, [sp, #4]
  28:	e2433001 	sub	r3, r3, #1	; 0x1
  2c:	e58d3004 	str	r3, [sp, #4]
  30:	e59d3004 	ldr	r3, [sp, #4]
  34:	e3530000 	cmp	r3, #0	; 0x0
  38:	1afffff9 	bne	24 <wait+0xc>
  3c:	e28dd008 	add	sp, sp, #8	; 0x8
  40:	e12fff1e 	bx	lr

00000044 <main>:
  44:	e52de004 	push	{lr}		; (str lr, [sp, #-4]!)
  48:	e24dd00c 	sub	sp, sp, #12	; 0xc
  4c:	e3a03000 	mov	r3, #0	; 0x0
  50:	e58d3004 	str	r3, [sp, #4]
  54:	e3a03456 	mov	r3, #1442840576	; 0x56000000
  58:	e2833050 	add	r3, r3, #80	; 0x50
  5c:	e3a02c15 	mov	r2, #5376	; 0x1500
  60:	e5832000 	str	r2, [r3]
  64:	e3a00c75 	mov	r0, #29952	; 0x7500
  68:	e2800030 	add	r0, r0, #48	; 0x30
  6c:	ebffffe9 	bl	18 <wait>
  70:	e3a02456 	mov	r2, #1442840576	; 0x56000000
  74:	e2822054 	add	r2, r2, #84	; 0x54
  78:	e59d3004 	ldr	r3, [sp, #4]
  7c:	e1a03203 	lsl	r3, r3, #4
  80:	e1e03003 	mvn	r3, r3
  84:	e5823000 	str	r3, [r2]
  88:	e59d3004 	ldr	r3, [sp, #4]
  8c:	e2833001 	add	r3, r3, #1	; 0x1
  90:	e58d3004 	str	r3, [sp, #4]
  94:	e59d3004 	ldr	r3, [sp, #4]
  98:	e3530008 	cmp	r3, #8	; 0x8
  9c:	1afffff0 	bne	64 <main+0x20>
  a0:	e3a03000 	mov	r3, #0	; 0x0
  a4:	e58d3004 	str	r3, [sp, #4]
  a8:	eaffffed 	b	64 <main+0x20>